; Function Attrs: mustprogress uwtable
define noundef ptr @_ZNK3zmq11io_thread_t10get_pollerEv(ptr nocapture noundef nonnull readonly align 8 dereferenceable(224) %this) local_unnamed_addr #0 align 2 {
entry:
  %_poller = getelementptr inbounds i8, ptr %this, i64 216
  %0 = load ptr, ptr %_poller, align 8
  %tobool.not = icmp eq ptr %0, null
  br i1 %tobool.not, label %if.then, label %do.end

if.then:                                          ; preds = %entry
  %1 = load ptr, ptr @stderr, align 8
  %call = tail call i32 (ptr, ptr, ...) @fprintf(ptr noundef %1, ptr noundef nonnull @.str.5, ptr noundef nonnull @.str.7, ptr noundef nonnull @.str.1, i32 noundef 85) #13
  %2 = load ptr, ptr @stderr, align 8
  %call2 = tail call i32 @fflush(ptr noundef %2)
  tail call void @_ZN3zmq9zmq_abortEPKc(ptr noundef nonnull @.str.7)
  %.pre = load ptr, ptr %_poller, align 8
  br label %do.end

do.end:                                           ; preds = %entry, %if.then
  %3 = phi ptr [ %0, %entry ], [ %.pre, %if.then ]
  ret ptr %3
}